target datalayout = "e-m:e-p270:32:32-p271:32:32-p272:64:64-i64:64-i128:128-f80:128-n8:16:32:64-S128"
target triple = "x86_64-pc-linux-gnu"

%"class.base::File" = type <{ %"class.base::ScopedGeneric", [4 x i8], %"class.base::FilePath", [4 x i8], i32, i8, i8, [6 x i8] }>
%"class.base::ScopedGeneric" = type { %"struct.base::ScopedGeneric<int, base::internal::ScopedFDCloseTraits>::Data" }
%"struct.base::ScopedGeneric<int, base::internal::ScopedFDCloseTraits>::Data" = type { i32 }
%"class.base::FilePath" = type { %"class.std::__cxx11::basic_string" }
%"class.std::__cxx11::basic_string" = type { %"struct.std::__cxx11::basic_string<char>::_Alloc_hider", i64, %union.anon }
%"struct.std::__cxx11::basic_string<char>::_Alloc_hider" = type { ptr }
%union.anon = type { i64, [8 x i8] }
%"class.base::FileTracing::ScopedTrace" = type { ptr, ptr }

@.str.5 = private unnamed_addr constant [35 x i8] c"File::ReadAtCurrentPosNoBestEffort\00", align 1

; Function Attrs: mustprogress nounwind uwtable
define linkonce_odr noundef nonnull align 4 dereferenceable(4) ptr @_ZNK4base13ScopedGenericIiNS_8internal19ScopedFDCloseTraitsEE3getEv(ptr noundef nonnull align 4 dereferenceable(4) %0) #4 comdat align 2 {
  %2 = alloca ptr, align 8
  store ptr %0, ptr %2, align 8, !tbaa !36
  %3 = load ptr, ptr %2, align 8
  %4 = getelementptr inbounds nuw %"class.base::ScopedGeneric", ptr %3, i32 0, i32 0
  %5 = getelementptr inbounds nuw %"struct.base::ScopedGeneric<int, base::internal::ScopedFDCloseTraits>::Data", ptr %4, i32 0, i32 0
  ret ptr %5
}

; Function Attrs: mustprogress nounwind uwtable
define linkonce_odr void @_ZN4base18ThreadRestrictions15AssertIOAllowedEv() #4 comdat align 2 {
  ret void
}

; Function Attrs: mustprogress uwtable
define noundef i32 @_ZN4base4File28ReadAtCurrentPosNoBestEffortEPci(ptr noundef nonnull align 8 dereferenceable(50) %0, ptr noundef %1, i32 noundef %2) #0 align 2 personality ptr @__gxx_personality_v0 {
  %4 = alloca i32, align 4
  %5 = alloca ptr, align 8
  %6 = alloca ptr, align 8
  %7 = alloca i32, align 4
  %8 = alloca %"class.base::FileTracing::ScopedTrace", align 8
  %9 = alloca ptr, align 8
  %10 = alloca i32, align 4
  %11 = alloca i64, align 8
  %12 = alloca i64, align 8
  store ptr %0, ptr %5, align 8, !tbaa !34
  store ptr %1, ptr %6, align 8, !tbaa !46
  store i32 %2, ptr %7, align 4, !tbaa !41
  %13 = load ptr, ptr %5, align 8
  call void @_ZN4base18ThreadRestrictions15AssertIOAllowedEv()
  %14 = load i32, ptr %7, align 4, !tbaa !41
  %15 = icmp slt i32 %14, 0
  br i1 %15, label %16, label %17

16:                                               ; preds = %3
  store i32 -1, ptr %4, align 4
  br label %57

17:                                               ; preds = %3
  call void @llvm.lifetime.start.p0(i64 16, ptr %8) #14
  call void @_ZN4base11FileTracing11ScopedTraceC1Ev(ptr noundef nonnull align 8 dereferenceable(16) %8)
  %18 = invoke noundef zeroext i1 @_ZN4base11FileTracing17IsCategoryEnabledEv()
          to label %19 unwind label %24

19:                                               ; preds = %17
  br i1 %18, label %20, label %28

20:                                               ; preds = %19
  %21 = load i32, ptr %7, align 4, !tbaa !41
  %22 = sext i32 %21 to i64
  invoke void @_ZN4base11FileTracing11ScopedTrace10InitializeEPKcPKNS_4FileEl(ptr noundef nonnull align 8 dereferenceable(16) %8, ptr noundef @.str.5, ptr noundef %13, i64 noundef %22)
          to label %23 unwind label %24

23:                                               ; preds = %20
  br label %28

24:                                               ; preds = %20, %17
  %25 = landingpad { ptr, i32 }
          cleanup
  %26 = extractvalue { ptr, i32 } %25, 0
  store ptr %26, ptr %9, align 8
  %27 = extractvalue { ptr, i32 } %25, 1
  store i32 %27, ptr %10, align 4
  br label %56

28:                                               ; preds = %23, %19
  call void @llvm.lifetime.start.p0(i64 8, ptr %11) #14
  br label %29

29:                                               ; preds = %46, %28
  %30 = getelementptr inbounds nuw %"class.base::File", ptr %13, i32 0, i32 0
  %31 = invoke noundef nonnull align 4 dereferenceable(4) ptr @_ZNK4base13ScopedGenericIiNS_8internal19ScopedFDCloseTraitsEE3getEv(ptr noundef nonnull align 4 dereferenceable(4) %30)
          to label %32 unwind label %52

32:                                               ; preds = %29
  %33 = load i32, ptr %31, align 4, !tbaa !41
  %34 = load ptr, ptr %6, align 8, !tbaa !46
  %35 = load i32, ptr %7, align 4, !tbaa !41
  %36 = sext i32 %35 to i64
  %37 = invoke i64 @read(i32 noundef %33, ptr noundef %34, i64 noundef %36)
          to label %38 unwind label %52

38:                                               ; preds = %32
  store i64 %37, ptr %11, align 8, !tbaa !24
  br label %39

39:                                               ; preds = %38
  %40 = load i64, ptr %11, align 8, !tbaa !24
  %41 = icmp eq i64 %40, -1
  br i1 %41, label %42, label %46

42:                                               ; preds = %39
  %43 = call ptr @__errno_location() #16
  %44 = load i32, ptr %43, align 4, !tbaa !41
  %45 = icmp eq i32 %44, 4
  br label %46

46:                                               ; preds = %42, %39
  %47 = phi i1 [ false, %39 ], [ %45, %42 ]
  br i1 %47, label %29, label %48, !llvm.loop !54

48:                                               ; preds = %46
  %49 = load i64, ptr %11, align 8, !tbaa !24
  store i64 %49, ptr %12, align 8, !tbaa !24
  call void @llvm.lifetime.end.p0(i64 8, ptr %11) #14
  %50 = load i64, ptr %12, align 8, !tbaa !24
  %51 = trunc i64 %50 to i32
  store i32 %51, ptr %4, align 4
  call void @_ZN4base11FileTracing11ScopedTraceD1Ev(ptr noundef nonnull align 8 dereferenceable(16) %8) #14
  call void @llvm.lifetime.end.p0(i64 16, ptr %8) #14
  br label %57

52:                                               ; preds = %32, %29
  %53 = landingpad { ptr, i32 }
          cleanup
  %54 = extractvalue { ptr, i32 } %53, 0
  store ptr %54, ptr %9, align 8
  %55 = extractvalue { ptr, i32 } %53, 1
  store i32 %55, ptr %10, align 4
  call void @llvm.lifetime.end.p0(i64 8, ptr %11) #14
  br label %56

56:                                               ; preds = %52, %24
  call void @_ZN4base11FileTracing11ScopedTraceD1Ev(ptr noundef nonnull align 8 dereferenceable(16) %8) #14
  call void @llvm.lifetime.end.p0(i64 16, ptr %8) #14
  br label %59

57:                                               ; preds = %48, %16
  %58 = load i32, ptr %4, align 4
  ret i32 %58

59:                                               ; preds = %56
  %60 = load ptr, ptr %9, align 8
  %61 = load i32, ptr %10, align 4
  %62 = insertvalue { ptr, i32 } poison, ptr %60, 0
  %63 = insertvalue { ptr, i32 } %62, i32 %61, 1
  resume { ptr, i32 } %63
}