; Function Attrs: mustprogress uwtable
define noundef i32 @_ZN4base4File28ReadAtCurrentPosNoBestEffortEPci(ptr noundef nonnull align 8 dereferenceable(50) %0, ptr noundef captures(none) %1, i32 noundef %2) local_unnamed_addr #0 align 2 personality ptr @__gxx_personality_v0 {
  %4 = alloca %"class.base::FileTracing::ScopedTrace", align 8
  %5 = icmp slt i32 %2, 0
  br i1 %5, label %25, label %6

6:                                                ; preds = %3
  call void @llvm.lifetime.start.p0(i64 16, ptr nonnull %4) #14
  call void @_ZN4base11FileTracing11ScopedTraceC1Ev(ptr noundef nonnull align 8 dereferenceable(16) %4)
  %7 = invoke noundef zeroext i1 @_ZN4base11FileTracing17IsCategoryEnabledEv()
          to label %8 unwind label %11

8:                                                ; preds = %6
  %9 = zext nneg i32 %2 to i64
  br i1 %7, label %10, label %._crit_edge.preheader

10:                                               ; preds = %8
  invoke void @_ZN4base11FileTracing11ScopedTrace10InitializeEPKcPKNS_4FileEl(ptr noundef nonnull align 8 dereferenceable(16) %4, ptr noundef nonnull @.str.5, ptr noundef nonnull %0, i64 noundef %9)
          to label %._crit_edge.preheader unwind label %11

._crit_edge.preheader:                            ; preds = %8, %10
  br label %._crit_edge

11:                                               ; preds = %10, %6
  %12 = landingpad { ptr, i32 }
          cleanup
  br label %24

._crit_edge:                                      ; preds = %._crit_edge.preheader, %17
  %13 = load i32, ptr %0, align 8, !tbaa !27
  %14 = invoke i64 @read(i32 noundef %13, ptr noundef %1, i64 noundef %9)
          to label %15 unwind label %22

15:                                               ; preds = %._crit_edge
  %16 = icmp eq i64 %14, -1
  br i1 %16, label %17, label %.critedge

17:                                               ; preds = %15
  %18 = tail call ptr @__errno_location() #15
  %19 = load i32, ptr %18, align 4, !tbaa !27
  %20 = icmp eq i32 %19, 4
  br i1 %20, label %._crit_edge, label %.critedge, !llvm.loop !34

.critedge:                                        ; preds = %15, %17
  %21 = trunc i64 %14 to i32
  call void @_ZN4base11FileTracing11ScopedTraceD1Ev(ptr noundef nonnull align 8 dereferenceable(16) %4) #14
  call void @llvm.lifetime.end.p0(i64 16, ptr nonnull %4) #14
  br label %25

22:                                               ; preds = %._crit_edge
  %23 = landingpad { ptr, i32 }
          cleanup
  br label %24

24:                                               ; preds = %22, %11
  %.pn = phi { ptr, i32 } [ %23, %22 ], [ %12, %11 ]
  call void @_ZN4base11FileTracing11ScopedTraceD1Ev(ptr noundef nonnull align 8 dereferenceable(16) %4) #14
  call void @llvm.lifetime.end.p0(i64 16, ptr nonnull %4) #14
  resume { ptr, i32 } %.pn

25:                                               ; preds = %3, %.critedge
  %.0 = phi i32 [ %21, %.critedge ], [ -1, %3 ]
  ret i32 %.0
}